; Function Attrs: nounwind uwtable
define dso_local i64 @hashint2extended(ptr noundef readonly captures(none) %0) local_unnamed_addr #0 {
  %2 = getelementptr inbounds nuw i8, ptr %0, i64 32
  %3 = load i64, ptr %2, align 8
  %4 = trunc i64 %3 to i32
  %sext = shl i32 %4, 16
  %5 = ashr exact i32 %sext, 16
  %6 = getelementptr inbounds nuw i8, ptr %0, i64 48
  %7 = load i64, ptr %6, align 8
  %8 = tail call i64 @hash_bytes_uint32_extended(i32 noundef %5, i64 noundef %7) #6
  ret i64 %8
}